; Listing generated by Microsoft (R) Optimizing Compiler Version 17.00.60610.1 

	TITLE	C:\Users\MintyAnt\Documents\Class\Summer 2013\CompilerDesign\Lab3\2_LoopUnrolling\LoopUnroll3.cpp
	.686P
	.XMM
	include listing.inc
	.model	flat

INCLUDELIB LIBCMT
INCLUDELIB OLDNAMES

PUBLIC	_main
PUBLIC	??_C@_06PHGHDMGF@?$CFd?0?5?$CFd?$AA@		; `string'
EXTRN	_printf:PROC
;	COMDAT ??_C@_06PHGHDMGF@?$CFd?0?5?$CFd?$AA@
CONST	SEGMENT
??_C@_06PHGHDMGF@?$CFd?0?5?$CFd?$AA@ DB '%d, %d', 00H	; `string'
CONST	ENDS
; Function compile flags: /Ogtpy
; File c:\users\mintyant\documents\class\summer 2013\compilerdesign\lab3\2_loopunrolling\loopunroll3.cpp
;	COMDAT _main
_TEXT	SEGMENT
_main	PROC						; COMDAT

; 5    : 	int x = 20;
; 6    : 	int y = 50;
; 7    : 	for (int index=0; index < 3; index++)
; 8    : 	{
; 9    : 		x = y / x;
; 10   : 		y = x / y;

  00000	33 c0		 xor	 eax, eax
  00002	99		 cdq
  00003	33 c9		 xor	 ecx, ecx
  00005	f7 f9		 idiv	 ecx
  00007	56		 push	 esi
  00008	8b f0		 mov	 esi, eax
  0000a	99		 cdq
  0000b	f7 f9		 idiv	 ecx
  0000d	8b c8		 mov	 ecx, eax
  0000f	99		 cdq
  00010	f7 fe		 idiv	 esi

; 11   : 	}
; 12   : 	
; 13   : 	printf("%d, %d", x, y);

  00012	50		 push	 eax
  00013	51		 push	 ecx
  00014	68 00 00 00 00	 push	 OFFSET ??_C@_06PHGHDMGF@?$CFd?0?5?$CFd?$AA@
  00019	e8 00 00 00 00	 call	 _printf
  0001e	83 c4 0c	 add	 esp, 12			; 0000000cH

; 14   : }

  00021	33 c0		 xor	 eax, eax
  00023	5e		 pop	 esi
  00024	c3		 ret	 0
_main	ENDP
_TEXT	ENDS
END
