; Listing generated by Microsoft (R) Optimizing Compiler Version 17.00.60610.1 

	TITLE	C:\Users\MintyAnt\Documents\Class\Summer 2013\CompilerDesign\Lab3\2_LoopUnrolling\LoopUnroll2.cpp
	.686P
	.XMM
	include listing.inc
	.model	flat

INCLUDELIB LIBCMT
INCLUDELIB OLDNAMES

PUBLIC	_main
PUBLIC	??_C@_02DPKJAMEF@?$CFd?$AA@			; `string'
EXTRN	_printf:PROC
;	COMDAT ??_C@_02DPKJAMEF@?$CFd?$AA@
CONST	SEGMENT
??_C@_02DPKJAMEF@?$CFd?$AA@ DB '%d', 00H		; `string'
CONST	ENDS
; Function compile flags: /Ogtpy
; File c:\users\mintyant\documents\class\summer 2013\compilerdesign\lab3\2_loopunrolling\loopunroll2.cpp
;	COMDAT _main
_TEXT	SEGMENT
_main	PROC						; COMDAT

; 4    : {

  00000	56		 push	 esi

; 5    : 	int x = 20;
; 6    : 	int y = 50;
; 7    : 	for (int index=0; index < 3; index++)

  00001	33 f6		 xor	 esi, esi
$LL3@main:

; 8    : 	{
; 9    : 		printf("%d", index);

  00003	56		 push	 esi
  00004	68 00 00 00 00	 push	 OFFSET ??_C@_02DPKJAMEF@?$CFd?$AA@
  00009	e8 00 00 00 00	 call	 _printf
  0000e	46		 inc	 esi
  0000f	83 c4 08	 add	 esp, 8
  00012	83 fe 03	 cmp	 esi, 3
  00015	7c ec		 jl	 SHORT $LL3@main

; 10   : 	}
; 11   : }

  00017	33 c0		 xor	 eax, eax
  00019	5e		 pop	 esi
  0001a	c3		 ret	 0
_main	ENDP
_TEXT	ENDS
END
