; Listing generated by Microsoft (R) Optimizing Compiler Version 17.00.60610.1 

	TITLE	C:\Users\MintyAnt\Documents\Class\Summer 2013\CompilerDesign\Lab3\2_LoopUnrolling\LoopUnroll3.cpp
	.686P
	.XMM
	include listing.inc
	.model	flat

INCLUDELIB LIBCMT
INCLUDELIB OLDNAMES

CONST	SEGMENT
$SG3697	DB	'%d, %d', 00H
CONST	ENDS
PUBLIC	_main
EXTRN	_printf:PROC
; Function compile flags: /Odtp
; File c:\users\mintyant\documents\class\summer 2013\compilerdesign\lab3\2_loopunrolling\loopunroll3.cpp
_TEXT	SEGMENT
_index$1 = -12						; size = 4
_x$ = -8						; size = 4
_y$ = -4						; size = 4
_main	PROC

; 4    : {

  00000	55		 push	 ebp
  00001	8b ec		 mov	 ebp, esp
  00003	83 ec 0c	 sub	 esp, 12			; 0000000cH

; 5    : 	int x = 20;

  00006	c7 45 f8 14 00
	00 00		 mov	 DWORD PTR _x$[ebp], 20	; 00000014H

; 6    : 	int y = 50;

  0000d	c7 45 fc 32 00
	00 00		 mov	 DWORD PTR _y$[ebp], 50	; 00000032H

; 7    : 	for (int index=0; index < 3; index++)

  00014	c7 45 f4 00 00
	00 00		 mov	 DWORD PTR _index$1[ebp], 0
  0001b	eb 09		 jmp	 SHORT $LN3@main
$LN2@main:
  0001d	8b 45 f4	 mov	 eax, DWORD PTR _index$1[ebp]
  00020	83 c0 01	 add	 eax, 1
  00023	89 45 f4	 mov	 DWORD PTR _index$1[ebp], eax
$LN3@main:
  00026	83 7d f4 03	 cmp	 DWORD PTR _index$1[ebp], 3
  0002a	7d 16		 jge	 SHORT $LN1@main

; 8    : 	{
; 9    : 		x = y / x;

  0002c	8b 45 fc	 mov	 eax, DWORD PTR _y$[ebp]
  0002f	99		 cdq
  00030	f7 7d f8	 idiv	 DWORD PTR _x$[ebp]
  00033	89 45 f8	 mov	 DWORD PTR _x$[ebp], eax

; 10   : 		y = x / y;

  00036	8b 45 f8	 mov	 eax, DWORD PTR _x$[ebp]
  00039	99		 cdq
  0003a	f7 7d fc	 idiv	 DWORD PTR _y$[ebp]
  0003d	89 45 fc	 mov	 DWORD PTR _y$[ebp], eax

; 11   : 	}

  00040	eb db		 jmp	 SHORT $LN2@main
$LN1@main:

; 12   : 	
; 13   : 	printf("%d, %d", x, y);

  00042	8b 4d fc	 mov	 ecx, DWORD PTR _y$[ebp]
  00045	51		 push	 ecx
  00046	8b 55 f8	 mov	 edx, DWORD PTR _x$[ebp]
  00049	52		 push	 edx
  0004a	68 00 00 00 00	 push	 OFFSET $SG3697
  0004f	e8 00 00 00 00	 call	 _printf
  00054	83 c4 0c	 add	 esp, 12			; 0000000cH

; 14   : }

  00057	33 c0		 xor	 eax, eax
  00059	8b e5		 mov	 esp, ebp
  0005b	5d		 pop	 ebp
  0005c	c3		 ret	 0
_main	ENDP
_TEXT	ENDS
END
